target datalayout = "e-m:e-p270:32:32-p271:32:32-p272:64:64-i64:64-i128:128-f80:128-n8:16:32:64-S128"
target triple = "x86_64-pc-linux-gnu"

%struct.H5C_cache_entry_t = type { ptr, i64, i64, ptr, i8, ptr, i8, i8, i8, i8, i32, i8, i8, i8, i8, i8, i32, ptr, i32, i32, i32, i32, i32, i8, i8, ptr, ptr, ptr, ptr, ptr, ptr, i8, i32, i8, i64, ptr, i64, i64, i32, i8, i32, i32, i8, ptr, ptr, ptr }
%struct.H5C_t = type { i8, ptr, ptr, i32, ptr, i64, i64, ptr, i8, ptr, i8, i8, i32, i64, [6 x i32], [6 x i64], i64, [6 x i64], i64, [6 x i64], [65536 x ptr], i32, i64, ptr, ptr, i64, ptr, ptr, i8, i8, i32, i64, [6 x i32], [6 x i64], ptr, i32, ptr, i8, i32, i32, i64, ptr, ptr, i32, i64, ptr, ptr, i32, i64, ptr, ptr, i8, i8, i64, i8, i8, i8, i8, i8, i8, %struct.H5C_auto_size_ctl_t, i32, [10 x i8], [11 x i32], i32, i32, i32, [10 x %struct.H5C_cache_entry_t], i64, i64, %struct.H5C_cache_image_ctl_t, i8, i8, i8, i8, i64, i64, i64, i64, i64, i64, i64, i32, ptr, ptr, i8, i8, [32 x i8] }
%struct.H5C_auto_size_ctl_t = type { i32, ptr, i8, i64, double, i64, i64, i64, i32, double, double, i8, i64, i32, double, double, i32, double, double, i8, i64, i32, i8, double }
%struct.H5C_cache_image_ctl_t = type { i32, i8, i8, i32, i32 }

@H5C_init_g = external global i8, align 1
@H5_libterm_g = external global i8, align 1

; Function Attrs: nounwind uwtable
define internal i32 @H5C__unpin_entry_real(ptr noundef %0, ptr noundef %1, i1 noundef zeroext %2) #0 {
  %4 = alloca ptr, align 8
  %5 = alloca ptr, align 8
  %6 = alloca i8, align 1
  %7 = alloca i32, align 4
  store ptr %0, ptr %4, align 8, !tbaa !44
  store ptr %1, ptr %5, align 8, !tbaa !8
  %8 = zext i1 %2 to i8
  store i8 %8, ptr %6, align 1, !tbaa !12
  call void @llvm.lifetime.start.p0(i64 4, ptr %7) #7
  store i32 0, ptr %7, align 4, !tbaa !10
  %9 = load i8, ptr @H5C_init_g, align 1, !tbaa !12, !range !16, !noundef !17
  %10 = trunc i8 %9 to i1
  br i1 %10, label %15, label %11

11:                                               ; preds = %3
  %12 = load i8, ptr @H5_libterm_g, align 1, !tbaa !12, !range !16, !noundef !17
  %13 = trunc i8 %12 to i1
  %14 = xor i1 %13, true
  br label %15

15:                                               ; preds = %11, %3
  %16 = phi i1 [ true, %3 ], [ %14, %11 ]
  %17 = xor i1 %16, true
  %18 = xor i1 %17, true
  %19 = zext i1 %18 to i32
  %20 = sext i32 %19 to i64
  %21 = call i64 @llvm.expect.i64(i64 %20, i64 1)
  %22 = icmp ne i64 %21, 0
  br i1 %22, label %23, label %153

23:                                               ; preds = %15
  %24 = load i8, ptr %6, align 1, !tbaa !12, !range !16, !noundef !17
  %25 = trunc i8 %24 to i1
  br i1 %25, label %26, label %147

26:                                               ; preds = %23
  %27 = load ptr, ptr %5, align 8, !tbaa !8
  %28 = getelementptr inbounds nuw %struct.H5C_cache_entry_t, ptr %27, i32 0, i32 8
  %29 = load i8, ptr %28, align 2, !tbaa !62, !range !16, !noundef !17
  %30 = trunc i8 %29 to i1
  br i1 %30, label %147, label %31

31:                                               ; preds = %26
  br label %32

32:                                               ; preds = %31
  %33 = load ptr, ptr %4, align 8, !tbaa !44
  %34 = getelementptr inbounds nuw %struct.H5C_t, ptr %33, i32 0, i32 45
  %35 = load ptr, ptr %34, align 8, !tbaa !158
  %36 = load ptr, ptr %5, align 8, !tbaa !8
  %37 = icmp eq ptr %35, %36
  br i1 %37, label %38, label %54

38:                                               ; preds = %32
  %39 = load ptr, ptr %5, align 8, !tbaa !8
  %40 = getelementptr inbounds nuw %struct.H5C_cache_entry_t, ptr %39, i32 0, i32 29
  %41 = load ptr, ptr %40, align 8, !tbaa !100
  %42 = load ptr, ptr %4, align 8, !tbaa !44
  %43 = getelementptr inbounds nuw %struct.H5C_t, ptr %42, i32 0, i32 45
  store ptr %41, ptr %43, align 8, !tbaa !158
  %44 = load ptr, ptr %4, align 8, !tbaa !44
  %45 = getelementptr inbounds nuw %struct.H5C_t, ptr %44, i32 0, i32 45
  %46 = load ptr, ptr %45, align 8, !tbaa !158
  %47 = icmp ne ptr %46, null
  br i1 %47, label %48, label %53

48:                                               ; preds = %38
  %49 = load ptr, ptr %4, align 8, !tbaa !44
  %50 = getelementptr inbounds nuw %struct.H5C_t, ptr %49, i32 0, i32 45
  %51 = load ptr, ptr %50, align 8, !tbaa !158
  %52 = getelementptr inbounds nuw %struct.H5C_cache_entry_t, ptr %51, i32 0, i32 30
  store ptr null, ptr %52, align 8, !tbaa !101
  br label %53

53:                                               ; preds = %48, %38
  br label %62

54:                                               ; preds = %32
  %55 = load ptr, ptr %5, align 8, !tbaa !8
  %56 = getelementptr inbounds nuw %struct.H5C_cache_entry_t, ptr %55, i32 0, i32 29
  %57 = load ptr, ptr %56, align 8, !tbaa !100
  %58 = load ptr, ptr %5, align 8, !tbaa !8
  %59 = getelementptr inbounds nuw %struct.H5C_cache_entry_t, ptr %58, i32 0, i32 30
  %60 = load ptr, ptr %59, align 8, !tbaa !101
  %61 = getelementptr inbounds nuw %struct.H5C_cache_entry_t, ptr %60, i32 0, i32 29
  store ptr %57, ptr %61, align 8, !tbaa !100
  br label %62

62:                                               ; preds = %54, %53
  %63 = load ptr, ptr %4, align 8, !tbaa !44
  %64 = getelementptr inbounds nuw %struct.H5C_t, ptr %63, i32 0, i32 46
  %65 = load ptr, ptr %64, align 8, !tbaa !159
  %66 = load ptr, ptr %5, align 8, !tbaa !8
  %67 = icmp eq ptr %65, %66
  br i1 %67, label %68, label %84

68:                                               ; preds = %62
  %69 = load ptr, ptr %5, align 8, !tbaa !8
  %70 = getelementptr inbounds nuw %struct.H5C_cache_entry_t, ptr %69, i32 0, i32 30
  %71 = load ptr, ptr %70, align 8, !tbaa !101
  %72 = load ptr, ptr %4, align 8, !tbaa !44
  %73 = getelementptr inbounds nuw %struct.H5C_t, ptr %72, i32 0, i32 46
  store ptr %71, ptr %73, align 8, !tbaa !159
  %74 = load ptr, ptr %4, align 8, !tbaa !44
  %75 = getelementptr inbounds nuw %struct.H5C_t, ptr %74, i32 0, i32 46
  %76 = load ptr, ptr %75, align 8, !tbaa !159
  %77 = icmp ne ptr %76, null
  br i1 %77, label %78, label %83

78:                                               ; preds = %68
  %79 = load ptr, ptr %4, align 8, !tbaa !44
  %80 = getelementptr inbounds nuw %struct.H5C_t, ptr %79, i32 0, i32 46
  %81 = load ptr, ptr %80, align 8, !tbaa !159
  %82 = getelementptr inbounds nuw %struct.H5C_cache_entry_t, ptr %81, i32 0, i32 29
  store ptr null, ptr %82, align 8, !tbaa !100
  br label %83

83:                                               ; preds = %78, %68
  br label %92

84:                                               ; preds = %62
  %85 = load ptr, ptr %5, align 8, !tbaa !8
  %86 = getelementptr inbounds nuw %struct.H5C_cache_entry_t, ptr %85, i32 0, i32 30
  %87 = load ptr, ptr %86, align 8, !tbaa !101
  %88 = load ptr, ptr %5, align 8, !tbaa !8
  %89 = getelementptr inbounds nuw %struct.H5C_cache_entry_t, ptr %88, i32 0, i32 29
  %90 = load ptr, ptr %89, align 8, !tbaa !100
  %91 = getelementptr inbounds nuw %struct.H5C_cache_entry_t, ptr %90, i32 0, i32 30
  store ptr %87, ptr %91, align 8, !tbaa !101
  br label %92

92:                                               ; preds = %84, %83
  %93 = load ptr, ptr %5, align 8, !tbaa !8
  %94 = getelementptr inbounds nuw %struct.H5C_cache_entry_t, ptr %93, i32 0, i32 29
  store ptr null, ptr %94, align 8, !tbaa !100
  %95 = load ptr, ptr %5, align 8, !tbaa !8
  %96 = getelementptr inbounds nuw %struct.H5C_cache_entry_t, ptr %95, i32 0, i32 30
  store ptr null, ptr %96, align 8, !tbaa !101
  %97 = load ptr, ptr %4, align 8, !tbaa !44
  %98 = getelementptr inbounds nuw %struct.H5C_t, ptr %97, i32 0, i32 43
  %99 = load i32, ptr %98, align 8, !tbaa !160
  %100 = add i32 %99, -1
  store i32 %100, ptr %98, align 8, !tbaa !160
  %101 = load ptr, ptr %5, align 8, !tbaa !8
  %102 = getelementptr inbounds nuw %struct.H5C_cache_entry_t, ptr %101, i32 0, i32 2
  %103 = load i64, ptr %102, align 8, !tbaa !65
  %104 = load ptr, ptr %4, align 8, !tbaa !44
  %105 = getelementptr inbounds nuw %struct.H5C_t, ptr %104, i32 0, i32 44
  %106 = load i64, ptr %105, align 8, !tbaa !121
  %107 = sub i64 %106, %103
  store i64 %107, ptr %105, align 8, !tbaa !121
  %108 = load ptr, ptr %4, align 8, !tbaa !44
  %109 = getelementptr inbounds nuw %struct.H5C_t, ptr %108, i32 0, i32 49
  %110 = load ptr, ptr %109, align 8, !tbaa !99
  %111 = icmp eq ptr %110, null
  br i1 %111, label %112, label %119

112:                                              ; preds = %92
  %113 = load ptr, ptr %5, align 8, !tbaa !8
  %114 = load ptr, ptr %4, align 8, !tbaa !44
  %115 = getelementptr inbounds nuw %struct.H5C_t, ptr %114, i32 0, i32 49
  store ptr %113, ptr %115, align 8, !tbaa !99
  %116 = load ptr, ptr %5, align 8, !tbaa !8
  %117 = load ptr, ptr %4, align 8, !tbaa !44
  %118 = getelementptr inbounds nuw %struct.H5C_t, ptr %117, i32 0, i32 50
  store ptr %116, ptr %118, align 8, !tbaa !102
  br label %133

119:                                              ; preds = %92
  %120 = load ptr, ptr %5, align 8, !tbaa !8
  %121 = load ptr, ptr %4, align 8, !tbaa !44
  %122 = getelementptr inbounds nuw %struct.H5C_t, ptr %121, i32 0, i32 49
  %123 = load ptr, ptr %122, align 8, !tbaa !99
  %124 = getelementptr inbounds nuw %struct.H5C_cache_entry_t, ptr %123, i32 0, i32 30
  store ptr %120, ptr %124, align 8, !tbaa !101
  %125 = load ptr, ptr %4, align 8, !tbaa !44
  %126 = getelementptr inbounds nuw %struct.H5C_t, ptr %125, i32 0, i32 49
  %127 = load ptr, ptr %126, align 8, !tbaa !99
  %128 = load ptr, ptr %5, align 8, !tbaa !8
  %129 = getelementptr inbounds nuw %struct.H5C_cache_entry_t, ptr %128, i32 0, i32 29
  store ptr %127, ptr %129, align 8, !tbaa !100
  %130 = load ptr, ptr %5, align 8, !tbaa !8
  %131 = load ptr, ptr %4, align 8, !tbaa !44
  %132 = getelementptr inbounds nuw %struct.H5C_t, ptr %131, i32 0, i32 49
  store ptr %130, ptr %132, align 8, !tbaa !99
  br label %133

133:                                              ; preds = %119, %112
  %134 = load ptr, ptr %4, align 8, !tbaa !44
  %135 = getelementptr inbounds nuw %struct.H5C_t, ptr %134, i32 0, i32 47
  %136 = load i32, ptr %135, align 8, !tbaa !103
  %137 = add i32 %136, 1
  store i32 %137, ptr %135, align 8, !tbaa !103
  %138 = load ptr, ptr %5, align 8, !tbaa !8
  %139 = getelementptr inbounds nuw %struct.H5C_cache_entry_t, ptr %138, i32 0, i32 2
  %140 = load i64, ptr %139, align 8, !tbaa !65
  %141 = load ptr, ptr %4, align 8, !tbaa !44
  %142 = getelementptr inbounds nuw %struct.H5C_t, ptr %141, i32 0, i32 48
  %143 = load i64, ptr %142, align 8, !tbaa !104
  %144 = add i64 %143, %140
  store i64 %144, ptr %142, align 8, !tbaa !104
  br label %145

145:                                              ; preds = %133
  br label %146

146:                                              ; preds = %145
  br label %147

147:                                              ; preds = %146, %26, %23
  %148 = load ptr, ptr %5, align 8, !tbaa !8
  %149 = getelementptr inbounds nuw %struct.H5C_cache_entry_t, ptr %148, i32 0, i32 11
  store i8 0, ptr %149, align 8, !tbaa !105
  br label %150

150:                                              ; preds = %147
  br label %151

151:                                              ; preds = %150
  br label %152

152:                                              ; preds = %151
  br label %153

153:                                              ; preds = %152, %15
  %154 = load i32, ptr %7, align 4, !tbaa !10
  call void @llvm.lifetime.end.p0(i64 4, ptr %7) #7
  ret i32 %154
}