; Function Attrs: mustprogress nofree norecurse nosync nounwind willreturn memory(readwrite, inaccessiblemem: none) uwtable
define internal fastcc void @H5C__unpin_entry_real(ptr noundef captures(none) %0, ptr noundef %1, i1 noundef zeroext %2) unnamed_addr #5 {
  %4 = load i8, ptr @H5C_init_g, align 1, !tbaa !3, !range !7, !noundef !8
  %5 = trunc nuw i8 %4 to i1
  %6 = load i8, ptr @H5_libterm_g, align 1, !range !7
  %7 = trunc nuw i8 %6 to i1
  %8 = xor i1 %7, true
  %9 = select i1 %5, i1 true, i1 %8
  br i1 %9, label %10, label %66, !prof !9

10:                                               ; preds = %3
  br i1 %2, label %11, label %64

11:                                               ; preds = %10
  %12 = getelementptr inbounds nuw i8, ptr %1, i64 50
  %13 = load i8, ptr %12, align 2, !tbaa !58, !range !7, !noundef !8
  %14 = trunc nuw i8 %13 to i1
  br i1 %14, label %64, label %15

15:                                               ; preds = %11
  %16 = getelementptr inbounds nuw i8, ptr %0, i64 524792
  %17 = load ptr, ptr %16, align 8, !tbaa !146
  %18 = icmp eq ptr %17, %1
  %19 = getelementptr inbounds nuw i8, ptr %1, i64 136
  %20 = load ptr, ptr %19, align 8, !tbaa !97
  br i1 %18, label %21, label %24

21:                                               ; preds = %15
  store ptr %20, ptr %16, align 8, !tbaa !146
  %.not = icmp eq ptr %20, null
  br i1 %.not, label %28, label %22

22:                                               ; preds = %21
  %23 = getelementptr inbounds nuw i8, ptr %20, i64 144
  store ptr null, ptr %23, align 8, !tbaa !98
  br label %28

24:                                               ; preds = %15
  %25 = getelementptr inbounds nuw i8, ptr %1, i64 144
  %26 = load ptr, ptr %25, align 8, !tbaa !98
  %27 = getelementptr inbounds nuw i8, ptr %26, i64 136
  store ptr %20, ptr %27, align 8, !tbaa !97
  br label %28

28:                                               ; preds = %21, %22, %24
  %29 = phi ptr [ null, %21 ], [ %20, %22 ], [ %20, %24 ]
  %30 = getelementptr inbounds nuw i8, ptr %0, i64 524800
  %31 = load ptr, ptr %30, align 8, !tbaa !147
  %32 = icmp eq ptr %31, %1
  %33 = getelementptr inbounds nuw i8, ptr %1, i64 144
  %34 = load ptr, ptr %33, align 8, !tbaa !98
  br i1 %32, label %35, label %38

35:                                               ; preds = %28
  store ptr %34, ptr %30, align 8, !tbaa !147
  %.not41 = icmp eq ptr %34, null
  br i1 %.not41, label %40, label %36

36:                                               ; preds = %35
  %37 = getelementptr inbounds nuw i8, ptr %34, i64 136
  store ptr null, ptr %37, align 8, !tbaa !97
  br label %40

38:                                               ; preds = %28
  %39 = getelementptr inbounds nuw i8, ptr %29, i64 144
  store ptr %34, ptr %39, align 8, !tbaa !98
  br label %40

40:                                               ; preds = %35, %36, %38
  %41 = getelementptr inbounds nuw i8, ptr %1, i64 136
  %42 = getelementptr inbounds nuw i8, ptr %0, i64 524776
  tail call void @llvm.memset.p0.i64(ptr noundef nonnull align 8 dereferenceable(16) %41, i8 0, i64 16, i1 false)
  %43 = load i32, ptr %42, align 8, !tbaa !183
  %44 = add i32 %43, -1
  store i32 %44, ptr %42, align 8, !tbaa !183
  %45 = getelementptr inbounds nuw i8, ptr %1, i64 16
  %46 = load i64, ptr %45, align 8, !tbaa !62
  %47 = getelementptr inbounds nuw i8, ptr %0, i64 524784
  %48 = load i64, ptr %47, align 8, !tbaa !153
  %49 = sub i64 %48, %46
  store i64 %49, ptr %47, align 8, !tbaa !153
  %50 = getelementptr inbounds nuw i8, ptr %0, i64 524824
  %51 = load ptr, ptr %50, align 8, !tbaa !96
  %52 = icmp eq ptr %51, null
  br i1 %52, label %53, label %55

53:                                               ; preds = %40
  %54 = getelementptr inbounds nuw i8, ptr %0, i64 524832
  store ptr %1, ptr %54, align 8, !tbaa !99
  br label %57

55:                                               ; preds = %40
  %56 = getelementptr inbounds nuw i8, ptr %51, i64 144
  store ptr %1, ptr %56, align 8, !tbaa !98
  store ptr %51, ptr %41, align 8, !tbaa !97
  br label %57

57:                                               ; preds = %55, %53
  store ptr %1, ptr %50, align 8, !tbaa !96
  %58 = getelementptr inbounds nuw i8, ptr %0, i64 524808
  %59 = load i32, ptr %58, align 8, !tbaa !100
  %60 = add i32 %59, 1
  store i32 %60, ptr %58, align 8, !tbaa !100
  %61 = getelementptr inbounds nuw i8, ptr %0, i64 524816
  %62 = load i64, ptr %61, align 8, !tbaa !101
  %63 = add i64 %62, %46
  store i64 %63, ptr %61, align 8, !tbaa !101
  br label %64

64:                                               ; preds = %57, %11, %10
  %65 = getelementptr inbounds nuw i8, ptr %1, i64 56
  store i8 0, ptr %65, align 8, !tbaa !102
  br label %66

66:                                               ; preds = %64, %3
  ret void
}